target datalayout = "e-m:e-p270:32:32-p271:32:32-p272:64:64-i64:64-i128:128-f80:128-n8:16:32:64-S128"
target triple = "x86_64-pc-linux-gnu"

%class.LogTagSet = type { ptr, i64, [5 x i32], [4 x i8], %class.LogOutputList, %class.LogDecorators, ptr }
%class.LogOutputList = type <{ [6 x ptr], i32, [4 x i8] }>
%class.LogDecorators = type { i32 }
%class.G1ConcurrentMark = type <{ ptr, ptr, %class.G1CMBitMap, %class.MemRegion, %class.G1CMRootMemRegions, %class.G1CMMarkStack, ptr, i32, i32, i32, [4 x i8], ptr, ptr, %class.TaskTerminator, %class.WorkerThreadsBarrierSync, %class.WorkerThreadsBarrierSync, i32, i8, i8, i8, i8, ptr, ptr, %class.NumberSeq, %class.NumberSeq, %class.NumberSeq, %class.NumberSeq, ptr, ptr, i32, i32, ptr, ptr, ptr, i8, [7 x i8] }>
%class.G1CMBitMap = type { %class.MarkBitMap, %class.G1CMBitMapMappingChangedListener }
%class.MarkBitMap = type { ptr, %class.MemRegion, i32, %class.BitMapView }
%class.BitMapView = type { %class.BitMap }
%class.BitMap = type { ptr, i64 }
%class.G1CMBitMapMappingChangedListener = type { %class.G1MappingChangedListener, ptr }
%class.G1MappingChangedListener = type { ptr }
%class.MemRegion = type { ptr, i64 }
%class.G1CMRootMemRegions = type <{ ptr, i64, i64, i64, i8, i8, [6 x i8] }>
%class.G1CMMarkStack = type { %"class.G1CMMarkStack::ChunkAllocator", [128 x i8], ptr, [120 x i8], ptr, i64, [112 x i8] }
%"class.G1CMMarkStack::ChunkAllocator" = type { i64, i64, i64, i64, i8, ptr, [128 x i8], i64, [120 x i8] }
%class.TaskTerminator = type { i32, ptr, [128 x i8], i32, [124 x i8], %class.Monitor, ptr }
%class.Monitor = type { %class.Mutex }
%class.Mutex = type { ptr, %class.PlatformMonitor, ptr }
%class.PlatformMonitor = type { %class.PlatformMutex, %union.pthread_cond_t }
%class.PlatformMutex = type { %union.pthread_mutex_t }
%union.pthread_mutex_t = type { %struct.__pthread_mutex_s }
%struct.__pthread_mutex_s = type { i32, i32, i32, i32, i32, i16, i16, %struct.__pthread_internal_list }
%struct.__pthread_internal_list = type { ptr, ptr }
%union.pthread_cond_t = type { %struct.__pthread_cond_s }
%struct.__pthread_cond_s = type { %union.__atomic_wide_counter, %union.__atomic_wide_counter, [2 x i32], [2 x i32], i32, i32, [2 x i32] }
%union.__atomic_wide_counter = type { i64 }
%class.WorkerThreadsBarrierSync = type <{ %class.Monitor, i32, i32, i8, i8, [6 x i8] }>
%class.NumberSeq = type { %class.AbsSeq, double, double }
%class.AbsSeq = type { ptr, i32, double, double, double, double, double }

@.str.55 = private unnamed_addr constant [82 x i8] c"Skipping Remembered Set Rebuild. No regions selected for rebuild, will only scrub\00", align 1
@_ZN16LogTagSetMappingILN6LogTag4typeE49ELS1_80ELS1_0ELS1_0ELS1_0ELS1_0EE7_tagsetE = linkonce_odr hidden global %class.LogTagSet zeroinitializer, comdat, align 8

; Function Attrs: mustprogress nounwind uwtable
define linkonce_odr hidden noundef zeroext i1 @_ZNK13LogOutputList8is_levelEN8LogLevel4typeE(ptr noundef nonnull align 8 dereferenceable(52) %0, i32 noundef %1) #1 comdat align 2 {
  %3 = alloca ptr, align 8
  %4 = alloca i32, align 4
  store ptr %0, ptr %3, align 8
  store i32 %1, ptr %4, align 4
  %5 = load ptr, ptr %3, align 8
  %6 = getelementptr inbounds %class.LogOutputList, ptr %5, i32 0, i32 0
  %7 = load i32, ptr %4, align 4
  %8 = zext i32 %7 to i64
  %9 = getelementptr inbounds [6 x ptr], ptr %6, i64 0, i64 %8
  %10 = load volatile ptr, ptr %9, align 8
  %11 = icmp ne ptr %10, null
  ret i1 %11
}

; Function Attrs: mustprogress nounwind uwtable
define linkonce_odr hidden noundef zeroext i1 @_ZNK9LogTagSet8is_levelEN8LogLevel4typeE(ptr noundef nonnull align 8 dereferenceable(112) %0, i32 noundef %1) #1 comdat align 2 {
  %3 = alloca ptr, align 8
  %4 = alloca i32, align 4
  store ptr %0, ptr %3, align 8
  store i32 %1, ptr %4, align 4
  %5 = load ptr, ptr %3, align 8
  %6 = getelementptr inbounds %class.LogTagSet, ptr %5, i32 0, i32 4
  %7 = load i32, ptr %4, align 4
  %8 = call noundef zeroext i1 @_ZNK13LogOutputList8is_levelEN8LogLevel4typeE(ptr noundef nonnull align 8 dereferenceable(52) %6, i32 noundef %7)
  ret i1 %8
}

; Function Attrs: mustprogress nounwind uwtable
define linkonce_odr hidden noundef nonnull align 8 dereferenceable(112) ptr @_ZN16LogTagSetMappingILN6LogTag4typeE49ELS1_80ELS1_0ELS1_0ELS1_0ELS1_0EE6tagsetEv() #1 comdat align 2 {
  ret ptr @_ZN16LogTagSetMappingILN6LogTag4typeE49ELS1_80ELS1_0ELS1_0ELS1_0ELS1_0EE7_tagsetE
}

; Function Attrs: mustprogress nounwind uwtable
define linkonce_odr hidden noundef zeroext i1 @_ZN7LogImplILN6LogTag4typeE49ELS1_80ELS1_0ELS1_0ELS1_0ELS1_0EE8is_levelEN8LogLevel4typeE(i32 noundef %0) #1 comdat align 2 {
  %2 = alloca i32, align 4
  store i32 %0, ptr %2, align 4
  %3 = call noundef nonnull align 8 dereferenceable(112) ptr @_ZN16LogTagSetMappingILN6LogTag4typeE49ELS1_80ELS1_0ELS1_0ELS1_0ELS1_0EE6tagsetEv()
  %4 = load i32, ptr %2, align 4
  %5 = call noundef zeroext i1 @_ZNK9LogTagSet8is_levelEN8LogLevel4typeE(ptr noundef nonnull align 8 dereferenceable(112) %3, i32 noundef %4)
  ret i1 %5
}

; Function Attrs: mustprogress nounwind uwtable
define linkonce_odr hidden noundef i32 @_ZNK16G1ConcurrentMark28needs_remembered_set_rebuildEv(ptr noundef nonnull align 8 dereferenceable(1849) %0) #1 comdat align 2 {
  %2 = alloca ptr, align 8
  store ptr %0, ptr %2, align 8
  %3 = load ptr, ptr %2, align 8
  %4 = getelementptr inbounds %class.G1ConcurrentMark, ptr %3, i32 0, i32 34
  %5 = load i8, ptr %4, align 8
  %6 = trunc i8 %5 to i1
  %7 = zext i1 %6 to i32
  ret i32 %7
}

; Function Attrs: mustprogress nounwind uwtable
define hidden void @_ZN16G1ConcurrentMark17rebuild_and_scrubEv(ptr noundef nonnull align 8 dereferenceable(1849) %0) #1 align 2 {
  %2 = alloca ptr, align 8
  store ptr %0, ptr %2, align 8
  %3 = load ptr, ptr %2, align 8
  %4 = call noundef i32 @_ZNK16G1ConcurrentMark28needs_remembered_set_rebuildEv(ptr noundef nonnull align 8 dereferenceable(1849) %3)
  %5 = icmp ne i32 %4, 0
  br i1 %5, label %11, label %6

6:                                                ; preds = %1
  %7 = call noundef zeroext i1 @_ZN7LogImplILN6LogTag4typeE49ELS1_80ELS1_0ELS1_0ELS1_0ELS1_0EE8is_levelEN8LogLevel4typeE(i32 noundef 2)
  br i1 %7, label %9, label %8

8:                                                ; preds = %6
  br label %10

9:                                                ; preds = %6
  call void (ptr, ...) @_ZN7LogImplILN6LogTag4typeE49ELS1_80ELS1_0ELS1_0ELS1_0ELS1_0EE5writeILN8LogLevel4typeE2EEEvPKcz(ptr noundef @.str.55)
  br label %10

10:                                               ; preds = %9, %8
  br label %11

11:                                               ; preds = %10, %1
  %12 = call noundef i32 @_ZNK16G1ConcurrentMark28needs_remembered_set_rebuildEv(ptr noundef nonnull align 8 dereferenceable(1849) %3)
  %13 = icmp ne i32 %12, 0
  %14 = getelementptr inbounds %class.G1ConcurrentMark, ptr %3, i32 0, i32 28
  %15 = load ptr, ptr %14, align 8
  call void @_ZN27G1ConcurrentRebuildAndScrub17rebuild_and_scrubEP16G1ConcurrentMarkbP13WorkerThreads(ptr noundef %3, i1 noundef zeroext %13, ptr noundef %15)
  ret void
}