; Function Attrs: mustprogress nounwind uwtable
define hidden void @_ZN16G1ConcurrentMark17rebuild_and_scrubEv(ptr noundef nonnull align 8 dereferenceable(1849) %0) local_unnamed_addr #0 align 2 {
  %2 = getelementptr inbounds i8, ptr %0, i64 1848
  %3 = load i8, ptr %2, align 8
  %4 = and i8 %3, 1
  %.not = icmp eq i8 %4, 0
  br i1 %.not, label %5, label %9

5:                                                ; preds = %1
  %6 = load volatile ptr, ptr getelementptr inbounds (i8, ptr @_ZN16LogTagSetMappingILN6LogTag4typeE49ELS1_80ELS1_0ELS1_0ELS1_0ELS1_0EE7_tagsetE, i64 56), align 8
  %.not1 = icmp eq ptr %6, null
  br i1 %.not1, label %9, label %7

7:                                                ; preds = %5
  tail call void (ptr, ...) @_ZN7LogImplILN6LogTag4typeE49ELS1_80ELS1_0ELS1_0ELS1_0ELS1_0EE5writeILN8LogLevel4typeE2EEEvPKcz(ptr noundef nonnull @.str.55)
  %.pre = load i8, ptr %2, align 8
  %.pre2 = and i8 %.pre, 1
  %8 = icmp ne i8 %.pre2, 0
  br label %9

9:                                                ; preds = %7, %5, %1
  %.pre-phi = phi i1 [ %8, %7 ], [ false, %5 ], [ true, %1 ]
  %10 = getelementptr inbounds i8, ptr %0, i64 1808
  %11 = load ptr, ptr %10, align 8
  tail call void @_ZN27G1ConcurrentRebuildAndScrub17rebuild_and_scrubEP16G1ConcurrentMarkbP13WorkerThreads(ptr noundef nonnull %0, i1 noundef zeroext %.pre-phi, ptr noundef %11) #22
  ret void
}